target datalayout = "e-m:e-p270:32:32-p271:32:32-p272:64:64-i64:64-i128:128-f80:128-n8:16:32:64-S128"
target triple = "x86_64-pc-linux-gnu"

%union.anon.3 = type { double }
%struct.VariableStatData = type { ptr, ptr, ptr, ptr, i32, i32, i32, i8, i8 }
%struct.FunctionCallInfoBaseData = type { ptr, ptr, ptr, i32, i8, i16, [0 x %struct.NullableDatum] }
%struct.NullableDatum = type { i64, i8 }
%struct.Node = type { i32 }
%struct.Const = type { %struct.Expr, i32, i32, i32, i32, i64, i8, i8, i32 }
%struct.Expr = type { i32 }

; Function Attrs: inlinehint nounwind uwtable
define internal i64 @Int64GetDatum(i64 noundef %0) #1 {
  %2 = alloca i64, align 8
  store i64 %0, ptr %2, align 8
  %3 = load i64, ptr %2, align 8
  ret i64 %3
}

; Function Attrs: inlinehint nounwind uwtable
define internal i64 @Float8GetDatum(double noundef %0) #1 {
  %2 = alloca double, align 8
  %3 = alloca %union.anon.3, align 8
  store double %0, ptr %2, align 8
  call void @llvm.lifetime.start.p0(i64 8, ptr %3) #10
  %4 = load double, ptr %2, align 8
  store double %4, ptr %3, align 8
  %5 = load i64, ptr %3, align 8
  %6 = call i64 @Int64GetDatum(i64 noundef %5)
  call void @llvm.lifetime.end.p0(i64 8, ptr %3) #10
  ret i64 %6
}

; Function Attrs: inlinehint nounwind uwtable
define internal i32 @DatumGetInt32(i64 noundef %0) #1 {
  %2 = alloca i64, align 8
  store i64 %0, ptr %2, align 8
  %3 = load i64, ptr %2, align 8
  %4 = trunc i64 %3 to i32
  ret i32 %4
}

; Function Attrs: inlinehint nounwind uwtable
define internal i32 @DatumGetObjectId(i64 noundef %0) #1 {
  %2 = alloca i64, align 8
  store i64 %0, ptr %2, align 8
  %3 = load i64, ptr %2, align 8
  %4 = trunc i64 %3 to i32
  ret i32 %4
}

; Function Attrs: inlinehint nounwind uwtable
define internal ptr @DatumGetPointer(i64 noundef %0) #1 {
  %2 = alloca i64, align 8
  store i64 %0, ptr %2, align 8
  %3 = load i64, ptr %2, align 8
  %4 = inttoptr i64 %3 to ptr
  ret ptr %4
}

; Function Attrs: nounwind uwtable
define internal i64 @scalarineqsel_wrapper(ptr noundef %0, i1 noundef zeroext %1, i1 noundef zeroext %2) #0 {
  %4 = alloca i64, align 8
  %5 = alloca ptr, align 8
  %6 = alloca i8, align 1
  %7 = alloca i8, align 1
  %8 = alloca ptr, align 8
  %9 = alloca i32, align 4
  %10 = alloca ptr, align 8
  %11 = alloca i32, align 4
  %12 = alloca i32, align 4
  %13 = alloca %struct.VariableStatData, align 8
  %14 = alloca ptr, align 8
  %15 = alloca i8, align 1
  %16 = alloca i64, align 8
  %17 = alloca i32, align 4
  %18 = alloca double, align 8
  %19 = alloca i32, align 4
  store ptr %0, ptr %5, align 8
  %20 = zext i1 %1 to i8
  store i8 %20, ptr %6, align 1
  %21 = zext i1 %2 to i8
  store i8 %21, ptr %7, align 1
  call void @llvm.lifetime.start.p0(i64 8, ptr %8) #10
  %22 = load ptr, ptr %5, align 8
  %23 = getelementptr inbounds nuw %struct.FunctionCallInfoBaseData, ptr %22, i32 0, i32 6
  %24 = getelementptr inbounds [0 x %struct.NullableDatum], ptr %23, i64 0, i64 0
  %25 = getelementptr inbounds nuw %struct.NullableDatum, ptr %24, i32 0, i32 0
  %26 = load i64, ptr %25, align 8
  %27 = call ptr @DatumGetPointer(i64 noundef %26)
  store ptr %27, ptr %8, align 8
  call void @llvm.lifetime.start.p0(i64 4, ptr %9) #10
  %28 = load ptr, ptr %5, align 8
  %29 = getelementptr inbounds nuw %struct.FunctionCallInfoBaseData, ptr %28, i32 0, i32 6
  %30 = getelementptr inbounds [0 x %struct.NullableDatum], ptr %29, i64 0, i64 1
  %31 = getelementptr inbounds nuw %struct.NullableDatum, ptr %30, i32 0, i32 0
  %32 = load i64, ptr %31, align 8
  %33 = call i32 @DatumGetObjectId(i64 noundef %32)
  store i32 %33, ptr %9, align 4
  call void @llvm.lifetime.start.p0(i64 8, ptr %10) #10
  %34 = load ptr, ptr %5, align 8
  %35 = getelementptr inbounds nuw %struct.FunctionCallInfoBaseData, ptr %34, i32 0, i32 6
  %36 = getelementptr inbounds [0 x %struct.NullableDatum], ptr %35, i64 0, i64 2
  %37 = getelementptr inbounds nuw %struct.NullableDatum, ptr %36, i32 0, i32 0
  %38 = load i64, ptr %37, align 8
  %39 = call ptr @DatumGetPointer(i64 noundef %38)
  store ptr %39, ptr %10, align 8
  call void @llvm.lifetime.start.p0(i64 4, ptr %11) #10
  %40 = load ptr, ptr %5, align 8
  %41 = getelementptr inbounds nuw %struct.FunctionCallInfoBaseData, ptr %40, i32 0, i32 6
  %42 = getelementptr inbounds [0 x %struct.NullableDatum], ptr %41, i64 0, i64 3
  %43 = getelementptr inbounds nuw %struct.NullableDatum, ptr %42, i32 0, i32 0
  %44 = load i64, ptr %43, align 8
  %45 = call i32 @DatumGetInt32(i64 noundef %44)
  store i32 %45, ptr %11, align 4
  call void @llvm.lifetime.start.p0(i64 4, ptr %12) #10
  %46 = load ptr, ptr %5, align 8
  %47 = getelementptr inbounds nuw %struct.FunctionCallInfoBaseData, ptr %46, i32 0, i32 3
  %48 = load i32, ptr %47, align 8
  store i32 %48, ptr %12, align 4
  call void @llvm.lifetime.start.p0(i64 48, ptr %13) #10
  call void @llvm.lifetime.start.p0(i64 8, ptr %14) #10
  call void @llvm.lifetime.start.p0(i64 1, ptr %15) #10
  call void @llvm.lifetime.start.p0(i64 8, ptr %16) #10
  call void @llvm.lifetime.start.p0(i64 4, ptr %17) #10
  call void @llvm.lifetime.start.p0(i64 8, ptr %18) #10
  %49 = load ptr, ptr %8, align 8
  %50 = load ptr, ptr %10, align 8
  %51 = load i32, ptr %11, align 4
  %52 = call zeroext i1 @get_restriction_variable(ptr noundef %49, ptr noundef %50, i32 noundef %51, ptr noundef %13, ptr noundef %14, ptr noundef %15)
  br i1 %52, label %55, label %53

53:                                               ; preds = %3
  %54 = call i64 @Float8GetDatum(double noundef 0x3FD5555555555555)
  store i64 %54, ptr %4, align 8
  store i32 1, ptr %19, align 4
  br label %151

55:                                               ; preds = %3
  %56 = load ptr, ptr %14, align 8
  %57 = getelementptr inbounds nuw %struct.Node, ptr %56, i32 0, i32 0
  %58 = load i32, ptr %57, align 4
  %59 = icmp eq i32 %58, 7
  br i1 %59, label %74, label %60

60:                                               ; preds = %55
  br label %61

61:                                               ; preds = %60
  %62 = getelementptr inbounds nuw %struct.VariableStatData, ptr %13, i32 0, i32 2
  %63 = load ptr, ptr %62, align 8
  %64 = icmp ne ptr %63, null
  br i1 %64, label %65, label %70

65:                                               ; preds = %61
  %66 = getelementptr inbounds nuw %struct.VariableStatData, ptr %13, i32 0, i32 3
  %67 = load ptr, ptr %66, align 8
  %68 = getelementptr inbounds nuw %struct.VariableStatData, ptr %13, i32 0, i32 2
  %69 = load ptr, ptr %68, align 8
  call void %67(ptr noundef %69)
  br label %70

70:                                               ; preds = %65, %61
  br label %71

71:                                               ; preds = %70
  br label %72

72:                                               ; preds = %71
  %73 = call i64 @Float8GetDatum(double noundef 0x3FD5555555555555)
  store i64 %73, ptr %4, align 8
  store i32 1, ptr %19, align 4
  br label %151

74:                                               ; preds = %55
  %75 = load ptr, ptr %14, align 8
  %76 = getelementptr inbounds nuw %struct.Const, ptr %75, i32 0, i32 6
  %77 = load i8, ptr %76, align 8, !range !4, !noundef !5
  %78 = trunc i8 %77 to i1
  br i1 %78, label %79, label %93

79:                                               ; preds = %74
  br label %80

80:                                               ; preds = %79
  %81 = getelementptr inbounds nuw %struct.VariableStatData, ptr %13, i32 0, i32 2
  %82 = load ptr, ptr %81, align 8
  %83 = icmp ne ptr %82, null
  br i1 %83, label %84, label %89

84:                                               ; preds = %80
  %85 = getelementptr inbounds nuw %struct.VariableStatData, ptr %13, i32 0, i32 3
  %86 = load ptr, ptr %85, align 8
  %87 = getelementptr inbounds nuw %struct.VariableStatData, ptr %13, i32 0, i32 2
  %88 = load ptr, ptr %87, align 8
  call void %86(ptr noundef %88)
  br label %89

89:                                               ; preds = %84, %80
  br label %90

90:                                               ; preds = %89
  br label %91

91:                                               ; preds = %90
  %92 = call i64 @Float8GetDatum(double noundef 0.000000e+00)
  store i64 %92, ptr %4, align 8
  store i32 1, ptr %19, align 4
  br label %151

93:                                               ; preds = %74
  %94 = load ptr, ptr %14, align 8
  %95 = getelementptr inbounds nuw %struct.Const, ptr %94, i32 0, i32 5
  %96 = load i64, ptr %95, align 8
  store i64 %96, ptr %16, align 8
  %97 = load ptr, ptr %14, align 8
  %98 = getelementptr inbounds nuw %struct.Const, ptr %97, i32 0, i32 1
  %99 = load i32, ptr %98, align 4
  store i32 %99, ptr %17, align 4
  %100 = load i8, ptr %15, align 1, !range !4, !noundef !5
  %101 = trunc i8 %100 to i1
  br i1 %101, label %126, label %102

102:                                              ; preds = %93
  %103 = load i32, ptr %9, align 4
  %104 = call i32 @get_commutator(i32 noundef %103)
  store i32 %104, ptr %9, align 4
  %105 = load i32, ptr %9, align 4
  %106 = icmp ne i32 %105, 0
  br i1 %106, label %121, label %107

107:                                              ; preds = %102
  br label %108

108:                                              ; preds = %107
  %109 = getelementptr inbounds nuw %struct.VariableStatData, ptr %13, i32 0, i32 2
  %110 = load ptr, ptr %109, align 8
  %111 = icmp ne ptr %110, null
  br i1 %111, label %112, label %117

112:                                              ; preds = %108
  %113 = getelementptr inbounds nuw %struct.VariableStatData, ptr %13, i32 0, i32 3
  %114 = load ptr, ptr %113, align 8
  %115 = getelementptr inbounds nuw %struct.VariableStatData, ptr %13, i32 0, i32 2
  %116 = load ptr, ptr %115, align 8
  call void %114(ptr noundef %116)
  br label %117

117:                                              ; preds = %112, %108
  br label %118

118:                                              ; preds = %117
  br label %119

119:                                              ; preds = %118
  %120 = call i64 @Float8GetDatum(double noundef 0x3FD5555555555555)
  store i64 %120, ptr %4, align 8
  store i32 1, ptr %19, align 4
  br label %151

121:                                              ; preds = %102
  %122 = load i8, ptr %6, align 1, !range !4, !noundef !5
  %123 = trunc i8 %122 to i1
  %124 = xor i1 %123, true
  %125 = zext i1 %124 to i8
  store i8 %125, ptr %6, align 1
  br label %126

126:                                              ; preds = %121, %93
  %127 = load ptr, ptr %8, align 8
  %128 = load i32, ptr %9, align 4
  %129 = load i8, ptr %6, align 1, !range !4, !noundef !5
  %130 = trunc i8 %129 to i1
  %131 = load i8, ptr %7, align 1, !range !4, !noundef !5
  %132 = trunc i8 %131 to i1
  %133 = load i32, ptr %12, align 4
  %134 = load i64, ptr %16, align 8
  %135 = load i32, ptr %17, align 4
  %136 = call double @scalarineqsel(ptr noundef %127, i32 noundef %128, i1 noundef zeroext %130, i1 noundef zeroext %132, i32 noundef %133, ptr noundef %13, i64 noundef %134, i32 noundef %135)
  store double %136, ptr %18, align 8
  br label %137

137:                                              ; preds = %126
  %138 = getelementptr inbounds nuw %struct.VariableStatData, ptr %13, i32 0, i32 2
  %139 = load ptr, ptr %138, align 8
  %140 = icmp ne ptr %139, null
  br i1 %140, label %141, label %146

141:                                              ; preds = %137
  %142 = getelementptr inbounds nuw %struct.VariableStatData, ptr %13, i32 0, i32 3
  %143 = load ptr, ptr %142, align 8
  %144 = getelementptr inbounds nuw %struct.VariableStatData, ptr %13, i32 0, i32 2
  %145 = load ptr, ptr %144, align 8
  call void %143(ptr noundef %145)
  br label %146

146:                                              ; preds = %141, %137
  br label %147

147:                                              ; preds = %146
  br label %148

148:                                              ; preds = %147
  %149 = load double, ptr %18, align 8
  %150 = call i64 @Float8GetDatum(double noundef %149)
  store i64 %150, ptr %4, align 8
  store i32 1, ptr %19, align 4
  br label %151

151:                                              ; preds = %148, %119, %91, %72, %53
  call void @llvm.lifetime.end.p0(i64 8, ptr %18) #10
  call void @llvm.lifetime.end.p0(i64 4, ptr %17) #10
  call void @llvm.lifetime.end.p0(i64 8, ptr %16) #10
  call void @llvm.lifetime.end.p0(i64 1, ptr %15) #10
  call void @llvm.lifetime.end.p0(i64 8, ptr %14) #10
  call void @llvm.lifetime.end.p0(i64 48, ptr %13) #10
  call void @llvm.lifetime.end.p0(i64 4, ptr %12) #10
  call void @llvm.lifetime.end.p0(i64 4, ptr %11) #10
  call void @llvm.lifetime.end.p0(i64 8, ptr %10) #10
  call void @llvm.lifetime.end.p0(i64 4, ptr %9) #10
  call void @llvm.lifetime.end.p0(i64 8, ptr %8) #10
  %152 = load i64, ptr %4, align 8
  ret i64 %152
}