; Function Attrs: nounwind uwtable
define internal fastcc i64 @scalarineqsel_wrapper(ptr noundef readonly captures(none) %0, i1 noundef zeroext %1, i1 noundef zeroext %2) unnamed_addr #0 {
  %4 = alloca %struct.VariableStatData, align 8
  %5 = alloca ptr, align 8
  %6 = alloca i8, align 1
  %7 = getelementptr inbounds nuw i8, ptr %0, i64 32
  %8 = load i64, ptr %7, align 8
  %9 = inttoptr i64 %8 to ptr
  %10 = getelementptr inbounds nuw i8, ptr %0, i64 48
  %11 = load i64, ptr %10, align 8
  %12 = trunc i64 %11 to i32
  %13 = getelementptr inbounds nuw i8, ptr %0, i64 64
  %14 = load i64, ptr %13, align 8
  %15 = inttoptr i64 %14 to ptr
  %16 = getelementptr inbounds nuw i8, ptr %0, i64 80
  %17 = load i64, ptr %16, align 8
  %18 = trunc i64 %17 to i32
  %19 = getelementptr inbounds nuw i8, ptr %0, i64 24
  %20 = load i32, ptr %19, align 8
  call void @llvm.lifetime.start.p0(i64 48, ptr nonnull %4) #12
  call void @llvm.lifetime.start.p0(i64 8, ptr nonnull %5) #12
  call void @llvm.lifetime.start.p0(i64 1, ptr nonnull %6) #12
  %21 = call zeroext i1 @get_restriction_variable(ptr noundef %9, ptr noundef %15, i32 noundef %18, ptr noundef nonnull %4, ptr noundef nonnull %5, ptr noundef nonnull %6)
  br i1 %21, label %22, label %68

22:                                               ; preds = %3
  %23 = load ptr, ptr %5, align 8
  %24 = load i32, ptr %23, align 4
  %25 = icmp eq i32 %24, 7
  br i1 %25, label %32, label %26

26:                                               ; preds = %22
  %27 = getelementptr inbounds nuw i8, ptr %4, i64 16
  %28 = load ptr, ptr %27, align 8
  %.not = icmp eq ptr %28, null
  br i1 %.not, label %68, label %29

29:                                               ; preds = %26
  %30 = getelementptr inbounds nuw i8, ptr %4, i64 24
  %31 = load ptr, ptr %30, align 8
  call void %31(ptr noundef nonnull %28) #12
  br label %68

32:                                               ; preds = %22
  %33 = getelementptr inbounds nuw i8, ptr %23, i64 32
  %34 = load i8, ptr %33, align 8, !range !4, !noundef !5
  %35 = trunc nuw i8 %34 to i1
  br i1 %35, label %36, label %42

36:                                               ; preds = %32
  %37 = getelementptr inbounds nuw i8, ptr %4, i64 16
  %38 = load ptr, ptr %37, align 8
  %.not29 = icmp eq ptr %38, null
  br i1 %.not29, label %68, label %39

39:                                               ; preds = %36
  %40 = getelementptr inbounds nuw i8, ptr %4, i64 24
  %41 = load ptr, ptr %40, align 8
  call void %41(ptr noundef nonnull %38) #12
  br label %68

42:                                               ; preds = %32
  %43 = getelementptr inbounds nuw i8, ptr %23, i64 24
  %44 = load i64, ptr %43, align 8
  %45 = getelementptr inbounds nuw i8, ptr %23, i64 4
  %46 = load i32, ptr %45, align 4
  %47 = load i8, ptr %6, align 1, !range !4, !noundef !5
  %48 = trunc nuw i8 %47 to i1
  br i1 %48, label %59, label %49

49:                                               ; preds = %42
  %50 = call i32 @get_commutator(i32 noundef %12) #12
  %.not26 = icmp eq i32 %50, 0
  br i1 %.not26, label %51, label %57

51:                                               ; preds = %49
  %52 = getelementptr inbounds nuw i8, ptr %4, i64 16
  %53 = load ptr, ptr %52, align 8
  %.not27 = icmp eq ptr %53, null
  br i1 %.not27, label %68, label %54

54:                                               ; preds = %51
  %55 = getelementptr inbounds nuw i8, ptr %4, i64 24
  %56 = load ptr, ptr %55, align 8
  call void %56(ptr noundef nonnull %53) #12
  br label %68

57:                                               ; preds = %49
  %58 = xor i1 %1, true
  br label %59

59:                                               ; preds = %57, %42
  %.020 = phi i32 [ %12, %42 ], [ %50, %57 ]
  %.019.in = phi i1 [ %1, %42 ], [ %58, %57 ]
  %60 = call fastcc double @scalarineqsel(ptr noundef %9, i32 noundef %.020, i1 noundef zeroext %.019.in, i1 noundef zeroext %2, i32 noundef %20, ptr noundef %4, i64 noundef %44, i32 noundef %46)
  %61 = getelementptr inbounds nuw i8, ptr %4, i64 16
  %62 = load ptr, ptr %61, align 8
  %.not28 = icmp eq ptr %62, null
  br i1 %.not28, label %66, label %63

63:                                               ; preds = %59
  %64 = getelementptr inbounds nuw i8, ptr %4, i64 24
  %65 = load ptr, ptr %64, align 8
  call void %65(ptr noundef nonnull %62) #12
  br label %66

66:                                               ; preds = %63, %59
  %67 = bitcast double %60 to i64
  br label %68

68:                                               ; preds = %51, %54, %36, %39, %26, %29, %3, %66
  %.0 = phi i64 [ %67, %66 ], [ 4599676419421066581, %3 ], [ 4599676419421066581, %29 ], [ 4599676419421066581, %26 ], [ 0, %39 ], [ 0, %36 ], [ 4599676419421066581, %54 ], [ 4599676419421066581, %51 ]
  call void @llvm.lifetime.end.p0(i64 1, ptr nonnull %6) #12
  call void @llvm.lifetime.end.p0(i64 8, ptr nonnull %5) #12
  call void @llvm.lifetime.end.p0(i64 48, ptr nonnull %4) #12
  ret i64 %.0
}